target datalayout = "e-m:e-p270:32:32-p271:32:32-p272:64:64-i64:64-i128:128-f80:128-n8:16:32:64-S128"
target triple = "x86_64-unknown-linux-gnu"

%struct.MemoryRegion = type { %struct.Object, i8, i8, i8, i8, i8, i8, i8, i8, i8, i8, ptr, ptr, ptr, ptr, ptr, ptr, i32, i128, i64, ptr, i64, i8, i8, i8, i8, i8, ptr, i64, i32, %union.anon, %union.anon.0, %union.anon.1, ptr, i32, ptr, ptr, i8 }
%struct.Object = type { ptr, ptr, ptr, i32, ptr }
%union.anon = type { %struct.QTailQLink }
%struct.QTailQLink = type { ptr, ptr }
%union.anon.0 = type { %struct.QTailQLink }
%union.anon.1 = type { %struct.QTailQLink }
%struct.VFIOPCIDevice = type { %struct.PCIDevice, %struct.VFIODevice, %struct.VFIOINTx, i32, ptr, i64, i32, i64, ptr, i32, ptr, ptr, i32, i32, [6 x %struct.VFIOBAR], ptr, ptr, %struct.PCIHostDeviceAddress, %struct.QemuUUID, %struct.EventNotifier, %struct.EventNotifier, ptr, i32, i32, i32, i32, i32, i32, i32, i32, i32, i32, i32, i8, i8, i8, i8, i8, i8, i8, i8, i8, i8, i8, i8, i8, i8, i32, i8, i8, ptr, %struct.Notifier }
%struct.PCIDevice = type { %struct.DeviceState, i8, i8, ptr, ptr, ptr, ptr, ptr, i32, %struct.PCIReqIDCache, [64 x i8], [7 x %struct.PCIIORegion], %struct.AddressSpace, %struct.MemoryRegion, %struct.MemoryRegion, ptr, ptr, [3 x ptr], i8, i8, i32, i8, i32, ptr, ptr, ptr, ptr, ptr, ptr, %struct.MemoryRegion, %struct.MemoryRegion, %struct.MemoryRegion, ptr, i8, i32, i8, %struct.PCIExpressDevice, ptr, ptr, i32, i8, %struct.MemoryRegion, i32, ptr, ptr, ptr, ptr, ptr, i32 }
%struct.DeviceState = type { %struct.Object, ptr, ptr, i8, i8, i64, ptr, i32, i8, ptr, %struct.NamedGPIOListHead, %struct.NamedClockListHead, %struct.BusStateHead, i32, i32, i32, %struct.ResettableState, ptr, %struct.MemReentrancyGuard }
%struct.NamedGPIOListHead = type { ptr }
%struct.NamedClockListHead = type { ptr }
%struct.BusStateHead = type { ptr }
%struct.ResettableState = type { i32, i8, i8 }
%struct.MemReentrancyGuard = type { i8 }
%struct.PCIReqIDCache = type { ptr, i32 }
%struct.PCIIORegion = type { i64, i64, i8, ptr, ptr }
%struct.AddressSpace = type { %struct.rcu_head, ptr, ptr, ptr, i32, i32, ptr, %union.anon.4, %union.anon.5 }
%struct.rcu_head = type { ptr, ptr }
%union.anon.4 = type { %struct.QTailQLink }
%union.anon.5 = type { %struct.QTailQLink }
%struct.PCIExpressDevice = type { i8, i8, i8, i16, %struct.PCIEAERLog, i16, i16, i16, %struct.PCIESriovPF, %struct.PCIESriovVF }
%struct.PCIEAERLog = type { i16, i16, ptr }
%struct.PCIESriovPF = type { i16, [7 x i8], ptr, ptr }
%struct.PCIESriovVF = type { ptr, i16 }
%struct.VFIODevice = type { %struct.anon.6, %struct.anon.7, %struct.anon.8, ptr, ptr, ptr, ptr, ptr, i32, i32, i8, i8, i8, i8, i32, ptr, i32, i32, i32, ptr, ptr, i32, i8, i8 }
%struct.anon.6 = type { ptr, ptr }
%struct.anon.7 = type { ptr, ptr }
%struct.anon.8 = type { ptr, ptr }
%struct.VFIOINTx = type { i8, i8, i8, %struct.EventNotifier, %struct.EventNotifier, %struct.PCIINTxRoute, i32, ptr }
%struct.PCIINTxRoute = type { i32, i32 }
%struct.VFIOBAR = type { %struct.VFIORegion, ptr, i64, i8, i8, i8, %struct.anon.9 }
%struct.VFIORegion = type { ptr, i64, ptr, i64, i32, i32, ptr, i8 }
%struct.anon.9 = type { ptr }
%struct.PCIHostDeviceAddress = type { i32, i32, i32, i32 }
%struct.QemuUUID = type { %union.anon.10 }
%union.anon.10 = type { %struct.anon.11 }
%struct.anon.11 = type { i32, i16, i16, i8, i8, [6 x i8] }
%struct.EventNotifier = type { i32, i32, i8 }
%struct.Notifier = type { ptr, %struct.anon.12 }
%struct.anon.12 = type { ptr, ptr }
%struct.timeval = type { i64, i64 }

@.str.4 = private unnamed_addr constant [30 x i8] c"%s(%s, 0x%x, 0x%x) failed: %m\00", align 1
@__func__.vfio_pci_read_config = private unnamed_addr constant [21 x i8] c"vfio_pci_read_config\00", align 1
@trace_events_enabled_count = external global i32, align 4
@message_with_timestamp = external global i8, align 1
@qemu_loglevel = external global i32, align 4
@.str.22 = private unnamed_addr constant [9 x i8] c"vfio-pci\00", align 1
@.str.23 = private unnamed_addr constant [22 x i8] c"../qemu/hw/vfio/pci.h\00", align 1
@__func__.VFIO_PCI = private unnamed_addr constant [9 x i8] c"VFIO_PCI\00", align 1
@_TRACE_VFIO_PCI_READ_CONFIG_DSTATE = external global i16, align 2
@.str.24 = private unnamed_addr constant [63 x i8] c"%d@%zu.%06zu:vfio_pci_read_config  (%s, @0x%x, len=0x%x) 0x%x\0A\00", align 1
@.str.25 = private unnamed_addr constant [50 x i8] c"vfio_pci_read_config  (%s, @0x%x, len=0x%x) 0x%x\0A\00", align 1

; Function Attrs: nounwind sspstrong uwtable
define internal zeroext i1 @qemu_loglevel_mask(i32 noundef %mask) #0 {
entry:
  %mask.addr = alloca i32, align 4
  store i32 %mask, ptr %mask.addr, align 4
  %0 = load i32, ptr @qemu_loglevel, align 4
  %1 = load i32, ptr %mask.addr, align 4
  %and = and i32 %0, %1
  %cmp = icmp ne i32 %and, 0
  ret i1 %cmp
}

; Function Attrs: nounwind sspstrong uwtable
define internal void @_nocheck__trace_vfio_pci_read_config(ptr noundef %name, i32 noundef %addr, i32 noundef %len, i32 noundef %val) #0 {
entry:
  %name.addr = alloca ptr, align 8
  %addr.addr = alloca i32, align 4
  %len.addr = alloca i32, align 4
  %val.addr = alloca i32, align 4
  %_now = alloca %struct.timeval, align 8
  store ptr %name, ptr %name.addr, align 8
  store i32 %addr, ptr %addr.addr, align 4
  store i32 %len, ptr %len.addr, align 4
  store i32 %val, ptr %val.addr, align 4
  %0 = load i32, ptr @trace_events_enabled_count, align 4
  %tobool = icmp ne i32 %0, 0
  %lnot = xor i1 %tobool, true
  %lnot1 = xor i1 %lnot, true
  %lnot.ext = zext i1 %lnot1 to i32
  %conv = sext i32 %lnot.ext to i64
  %tobool2 = icmp ne i64 %conv, 0
  br i1 %tobool2, label %land.lhs.true, label %if.end11

land.lhs.true:                                    ; preds = %entry
  %1 = load i16, ptr @_TRACE_VFIO_PCI_READ_CONFIG_DSTATE, align 2
  %conv3 = zext i16 %1 to i32
  %tobool4 = icmp ne i32 %conv3, 0
  br i1 %tobool4, label %land.lhs.true5, label %if.end11

land.lhs.true5:                                   ; preds = %land.lhs.true
  %call = call zeroext i1 @qemu_loglevel_mask(i32 noundef 32768)
  br i1 %call, label %if.then, label %if.end11

if.then:                                          ; preds = %land.lhs.true5
  %2 = load i8, ptr @message_with_timestamp, align 1
  %tobool7 = trunc i8 %2 to i1
  br i1 %tobool7, label %if.then8, label %if.else

if.then8:                                         ; preds = %if.then
  %call9 = call i32 @gettimeofday(ptr noundef %_now, ptr noundef null) #16
  %call10 = call i32 @qemu_get_thread_id()
  %tv_sec = getelementptr inbounds %struct.timeval, ptr %_now, i32 0, i32 0
  %3 = load i64, ptr %tv_sec, align 8
  %tv_usec = getelementptr inbounds %struct.timeval, ptr %_now, i32 0, i32 1
  %4 = load i64, ptr %tv_usec, align 8
  %5 = load ptr, ptr %name.addr, align 8
  %6 = load i32, ptr %addr.addr, align 4
  %7 = load i32, ptr %len.addr, align 4
  %8 = load i32, ptr %val.addr, align 4
  call void (ptr, ...) @qemu_log(ptr noundef @.str.24, i32 noundef %call10, i64 noundef %3, i64 noundef %4, ptr noundef %5, i32 noundef %6, i32 noundef %7, i32 noundef %8)
  br label %if.end

if.else:                                          ; preds = %if.then
  %9 = load ptr, ptr %name.addr, align 8
  %10 = load i32, ptr %addr.addr, align 4
  %11 = load i32, ptr %len.addr, align 4
  %12 = load i32, ptr %val.addr, align 4
  call void (ptr, ...) @qemu_log(ptr noundef @.str.25, ptr noundef %9, i32 noundef %10, i32 noundef %11, i32 noundef %12)
  br label %if.end

if.end:                                           ; preds = %if.else, %if.then8
  br label %if.end11

if.end11:                                         ; preds = %if.end, %land.lhs.true5, %land.lhs.true, %entry
  ret void
}

; Function Attrs: nounwind sspstrong uwtable
define internal void @trace_vfio_pci_read_config(ptr noundef %name, i32 noundef %addr, i32 noundef %len, i32 noundef %val) #0 {
entry:
  %name.addr = alloca ptr, align 8
  %addr.addr = alloca i32, align 4
  %len.addr = alloca i32, align 4
  %val.addr = alloca i32, align 4
  store ptr %name, ptr %name.addr, align 8
  store i32 %addr, ptr %addr.addr, align 4
  store i32 %len, ptr %len.addr, align 4
  store i32 %val, ptr %val.addr, align 4
  %0 = load ptr, ptr %name.addr, align 8
  %1 = load i32, ptr %addr.addr, align 4
  %2 = load i32, ptr %len.addr, align 4
  %3 = load i32, ptr %val.addr, align 4
  call void @_nocheck__trace_vfio_pci_read_config(ptr noundef %0, i32 noundef %1, i32 noundef %2, i32 noundef %3)
  ret void
}

; Function Attrs: nounwind sspstrong uwtable
define internal i32 @le32_to_cpu(i32 noundef %v) #0 {
entry:
  %v.addr = alloca i32, align 4
  store i32 %v, ptr %v.addr, align 4
  %0 = load i32, ptr %v.addr, align 4
  ret i32 %0
}

; Function Attrs: nounwind sspstrong uwtable
define internal ptr @VFIO_PCI(ptr noundef %obj) #0 {
entry:
  %obj.addr = alloca ptr, align 8
  store ptr %obj, ptr %obj.addr, align 8
  %0 = load ptr, ptr %obj.addr, align 8
  %call = call ptr @object_dynamic_cast_assert(ptr noundef %0, ptr noundef @.str.22, ptr noundef @.str.23, i32 noundef 120, ptr noundef @__func__.VFIO_PCI)
  ret ptr %call
}

; Function Attrs: nounwind sspstrong uwtable
define dso_local i32 @vfio_pci_read_config(ptr noundef %pdev, i32 noundef %addr, i32 noundef %len) #0 {
entry:
  %retval = alloca i32, align 4
  %pdev.addr = alloca ptr, align 8
  %addr.addr = alloca i32, align 4
  %len.addr = alloca i32, align 4
  %vdev = alloca ptr, align 8
  %emu_bits = alloca i32, align 4
  %emu_val = alloca i32, align 4
  %phys_val = alloca i32, align 4
  %val = alloca i32, align 4
  %ret = alloca i64, align 8
  store ptr %pdev, ptr %pdev.addr, align 8
  store i32 %addr, ptr %addr.addr, align 4
  store i32 %len, ptr %len.addr, align 4
  %0 = load ptr, ptr %pdev.addr, align 8
  %call = call ptr @VFIO_PCI(ptr noundef %0)
  store ptr %call, ptr %vdev, align 8
  store i32 0, ptr %emu_bits, align 4
  store i32 0, ptr %emu_val, align 4
  store i32 0, ptr %phys_val, align 4
  %1 = load ptr, ptr %vdev, align 8
  %emulated_config_bits = getelementptr inbounds %struct.VFIOPCIDevice, ptr %1, i32 0, i32 4
  %2 = load ptr, ptr %emulated_config_bits, align 16
  %3 = load i32, ptr %addr.addr, align 4
  %idx.ext = zext i32 %3 to i64
  %add.ptr = getelementptr i8, ptr %2, i64 %idx.ext
  %4 = load i32, ptr %len.addr, align 4
  %conv = sext i32 %4 to i64
  call void @llvm.memcpy.p0.p0.i64(ptr align 4 %emu_bits, ptr align 1 %add.ptr, i64 %conv, i1 false)
  %5 = load i32, ptr %emu_bits, align 4
  %call1 = call i32 @le32_to_cpu(i32 noundef %5)
  store i32 %call1, ptr %emu_bits, align 4
  %6 = load i32, ptr %emu_bits, align 4
  %tobool = icmp ne i32 %6, 0
  br i1 %tobool, label %if.then, label %if.end

if.then:                                          ; preds = %entry
  %7 = load ptr, ptr %pdev.addr, align 8
  %8 = load i32, ptr %addr.addr, align 4
  %9 = load i32, ptr %len.addr, align 4
  %call2 = call i32 @pci_default_read_config(ptr noundef %7, i32 noundef %8, i32 noundef %9)
  store i32 %call2, ptr %emu_val, align 4
  br label %if.end

if.end:                                           ; preds = %if.then, %entry
  %10 = load i32, ptr %emu_bits, align 4
  %not = xor i32 %10, -1
  %11 = load i32, ptr %len.addr, align 4
  %mul = mul i32 %11, 8
  %sub = sub i32 32, %mul
  %shr = lshr i32 -1, %sub
  %and = and i32 %not, %shr
  %tobool3 = icmp ne i32 %and, 0
  br i1 %tobool3, label %if.then4, label %if.end16

if.then4:                                         ; preds = %if.end
  %12 = load ptr, ptr %vdev, align 8
  %vbasedev = getelementptr inbounds %struct.VFIOPCIDevice, ptr %12, i32 0, i32 1
  %fd = getelementptr inbounds %struct.VFIODevice, ptr %vbasedev, i32 0, i32 8
  %13 = load i32, ptr %fd, align 8
  %14 = load i32, ptr %len.addr, align 4
  %conv5 = sext i32 %14 to i64
  %15 = load ptr, ptr %vdev, align 8
  %config_offset = getelementptr inbounds %struct.VFIOPCIDevice, ptr %15, i32 0, i32 5
  %16 = load i64, ptr %config_offset, align 8
  %17 = load i32, ptr %addr.addr, align 4
  %conv6 = zext i32 %17 to i64
  %add = add i64 %16, %conv6
  %call7 = call i64 @pread64(i32 noundef %13, ptr noundef %phys_val, i64 noundef %conv5, i64 noundef %add)
  store i64 %call7, ptr %ret, align 8
  %18 = load i64, ptr %ret, align 8
  %19 = load i32, ptr %len.addr, align 4
  %conv8 = sext i32 %19 to i64
  %cmp = icmp ne i64 %18, %conv8
  br i1 %cmp, label %if.then10, label %if.end14

if.then10:                                        ; preds = %if.then4
  %20 = load ptr, ptr %vdev, align 8
  %vbasedev11 = getelementptr inbounds %struct.VFIOPCIDevice, ptr %20, i32 0, i32 1
  %name = getelementptr inbounds %struct.VFIODevice, ptr %vbasedev11, i32 0, i32 6
  %21 = load ptr, ptr %name, align 8
  %22 = load i32, ptr %addr.addr, align 4
  %23 = load i32, ptr %len.addr, align 4
  call void (ptr, ...) @error_report(ptr noundef @.str.4, ptr noundef @__func__.vfio_pci_read_config, ptr noundef %21, i32 noundef %22, i32 noundef %23)
  %call12 = call ptr @__errno_location() #14
  %24 = load i32, ptr %call12, align 4
  %sub13 = sub i32 0, %24
  store i32 %sub13, ptr %retval, align 4
  br label %return

if.end14:                                         ; preds = %if.then4
  %25 = load i32, ptr %phys_val, align 4
  %call15 = call i32 @le32_to_cpu(i32 noundef %25)
  store i32 %call15, ptr %phys_val, align 4
  br label %if.end16

if.end16:                                         ; preds = %if.end14, %if.end
  %26 = load i32, ptr %emu_val, align 4
  %27 = load i32, ptr %emu_bits, align 4
  %and17 = and i32 %26, %27
  %28 = load i32, ptr %phys_val, align 4
  %29 = load i32, ptr %emu_bits, align 4
  %not18 = xor i32 %29, -1
  %and19 = and i32 %28, %not18
  %or = or i32 %and17, %and19
  store i32 %or, ptr %val, align 4
  %30 = load ptr, ptr %vdev, align 8
  %vbasedev20 = getelementptr inbounds %struct.VFIOPCIDevice, ptr %30, i32 0, i32 1
  %name21 = getelementptr inbounds %struct.VFIODevice, ptr %vbasedev20, i32 0, i32 6
  %31 = load ptr, ptr %name21, align 8
  %32 = load i32, ptr %addr.addr, align 4
  %33 = load i32, ptr %len.addr, align 4
  %34 = load i32, ptr %val, align 4
  call void @trace_vfio_pci_read_config(ptr noundef %31, i32 noundef %32, i32 noundef %33, i32 noundef %34)
  %35 = load i32, ptr %val, align 4
  store i32 %35, ptr %retval, align 4
  br label %return

return:                                           ; preds = %if.end16, %if.then10
  %36 = load i32, ptr %retval, align 4
  ret i32 %36
}