; Function Attrs: nounwind sspstrong uwtable
define dso_local i32 @vfio_pci_read_config(ptr noundef %pdev, i32 noundef %addr, i32 noundef %len) #0 {
entry:
  %_now.i.i = alloca %struct.timeval, align 8
  %emu_bits = alloca i32, align 4
  %phys_val = alloca i32, align 4
  %call.i = tail call ptr @object_dynamic_cast_assert(ptr noundef %pdev, ptr noundef nonnull @.str.22, ptr noundef nonnull @.str.23, i32 noundef 120, ptr noundef nonnull @__func__.VFIO_PCI) #23
  store i32 0, ptr %emu_bits, align 4
  store i32 0, ptr %phys_val, align 4
  %emulated_config_bits = getelementptr inbounds nuw i8, ptr %call.i, i64 2816
  %0 = load ptr, ptr %emulated_config_bits, align 16
  %idx.ext = zext i32 %addr to i64
  %add.ptr = getelementptr i8, ptr %0, i64 %idx.ext
  %conv = sext i32 %len to i64
  call void @llvm.memcpy.p0.p0.i64(ptr nonnull align 4 %emu_bits, ptr align 1 %add.ptr, i64 %conv, i1 false)
  %emu_bits.0.emu_bits.0.emu_bits.0.emu_bits.0. = load i32, ptr %emu_bits, align 4
  %tobool.not = icmp eq i32 %emu_bits.0.emu_bits.0.emu_bits.0.emu_bits.0., 0
  br i1 %tobool.not, label %if.end, label %if.then

if.then:                                          ; preds = %entry
  %call2 = tail call i32 @pci_default_read_config(ptr noundef %pdev, i32 noundef %addr, i32 noundef %len) #23
  br label %if.end

if.end:                                           ; preds = %if.then, %entry
  %emu_val.0 = phi i32 [ %call2, %if.then ], [ 0, %entry ]
  %not = xor i32 %emu_bits.0.emu_bits.0.emu_bits.0.emu_bits.0., -1
  %mul = shl i32 %len, 3
  %sub = sub i32 32, %mul
  %shr = lshr i32 -1, %sub
  %and = and i32 %shr, %not
  %tobool3.not = icmp eq i32 %and, 0
  br i1 %tobool3.not, label %if.end16, label %if.then4

if.then4:                                         ; preds = %if.end
  %fd = getelementptr inbounds nuw i8, ptr %call.i, i64 2696
  %1 = load i32, ptr %fd, align 8
  %config_offset = getelementptr inbounds nuw i8, ptr %call.i, i64 2824
  %2 = load i64, ptr %config_offset, align 8
  %add = add i64 %2, %idx.ext
  %call7 = call i64 @pread64(i32 noundef %1, ptr noundef nonnull %phys_val, i64 noundef %conv, i64 noundef %add) #23
  %cmp.not = icmp eq i64 %call7, %conv
  br i1 %cmp.not, label %if.then4.if.end16_crit_edge, label %if.then10

if.then4.if.end16_crit_edge:                      ; preds = %if.then4
  %.pre = load i32, ptr %phys_val, align 4
  br label %if.end16

if.then10:                                        ; preds = %if.then4
  %name = getelementptr inbounds nuw i8, ptr %call.i, i64 2680
  %3 = load ptr, ptr %name, align 8
  call void (ptr, ...) @error_report(ptr noundef nonnull @.str.4, ptr noundef nonnull @__func__.vfio_pci_read_config, ptr noundef %3, i32 noundef %addr, i32 noundef %len) #23
  %call12 = tail call ptr @__errno_location() #24
  %4 = load i32, ptr %call12, align 4
  %sub13 = sub i32 0, %4
  br label %return

if.end16:                                         ; preds = %if.then4.if.end16_crit_edge, %if.end
  %5 = phi i32 [ %.pre, %if.then4.if.end16_crit_edge ], [ 0, %if.end ]
  %and17 = and i32 %emu_val.0, %emu_bits.0.emu_bits.0.emu_bits.0.emu_bits.0.
  %and19 = and i32 %5, %not
  %or = or i32 %and19, %and17
  %name21 = getelementptr inbounds nuw i8, ptr %call.i, i64 2680
  %6 = load ptr, ptr %name21, align 8
  call void @llvm.lifetime.start.p0(i64 16, ptr nonnull %_now.i.i)
  %7 = load i32, ptr @trace_events_enabled_count, align 4
  %tobool.i.i = icmp ne i32 %7, 0
  %8 = load i16, ptr @_TRACE_VFIO_PCI_READ_CONFIG_DSTATE, align 2
  %tobool4.i.i = icmp ne i16 %8, 0
  %or.cond.i.i = select i1 %tobool.i.i, i1 %tobool4.i.i, i1 false
  br i1 %or.cond.i.i, label %land.lhs.true5.i.i, label %trace_vfio_pci_read_config.exit

land.lhs.true5.i.i:                               ; preds = %if.end16
  %9 = load i32, ptr @qemu_loglevel, align 4
  %and.i.i.i = and i32 %9, 32768
  %cmp.i.not.i.i = icmp eq i32 %and.i.i.i, 0
  br i1 %cmp.i.not.i.i, label %trace_vfio_pci_read_config.exit, label %if.then.i.i

if.then.i.i:                                      ; preds = %land.lhs.true5.i.i
  %10 = load i8, ptr @message_with_timestamp, align 1
  %tobool7.i.i = trunc i8 %10 to i1
  br i1 %tobool7.i.i, label %if.then8.i.i, label %if.else.i.i

if.then8.i.i:                                     ; preds = %if.then.i.i
  %call9.i.i = call i32 @gettimeofday(ptr noundef nonnull %_now.i.i, ptr noundef null) #23
  %call10.i.i = call i32 @qemu_get_thread_id() #23
  %11 = load i64, ptr %_now.i.i, align 8
  %tv_usec.i.i = getelementptr inbounds nuw i8, ptr %_now.i.i, i64 8
  %12 = load i64, ptr %tv_usec.i.i, align 8
  call void (ptr, ...) @qemu_log(ptr noundef nonnull @.str.24, i32 noundef %call10.i.i, i64 noundef %11, i64 noundef %12, ptr noundef %6, i32 noundef %addr, i32 noundef %len, i32 noundef %or) #23
  br label %trace_vfio_pci_read_config.exit

if.else.i.i:                                      ; preds = %if.then.i.i
  call void (ptr, ...) @qemu_log(ptr noundef nonnull @.str.25, ptr noundef %6, i32 noundef %addr, i32 noundef %len, i32 noundef %or) #23
  br label %trace_vfio_pci_read_config.exit

trace_vfio_pci_read_config.exit:                  ; preds = %if.end16, %land.lhs.true5.i.i, %if.then8.i.i, %if.else.i.i
  call void @llvm.lifetime.end.p0(i64 16, ptr nonnull %_now.i.i)
  br label %return

return:                                           ; preds = %trace_vfio_pci_read_config.exit, %if.then10
  %retval.0 = phi i32 [ %sub13, %if.then10 ], [ %or, %trace_vfio_pci_read_config.exit ]
  ret i32 %retval.0
}